target datalayout = "e-m:e-p270:32:32-p271:32:32-p272:64:64-i64:64-i128:128-f80:128-n8:16:32:64-S128"
target triple = "x86_64-pc-linux-gnu"

%struct.FunctionCallInfoBaseData = type { ptr, ptr, ptr, i32, i8, i16, [0 x %struct.NullableDatum] }
%struct.NullableDatum = type { i64, i8 }
%struct.FmgrInfo = type { ptr, i32, i16, i8, i8, i8, ptr, ptr, ptr }
%struct.TypeCacheEntry = type { i32, i32, i16, i8, i8, i8, i8, i32, i32, i32, i32, i32, i32, i32, i32, i32, i32, i32, i32, i32, i32, %struct.FmgrInfo, %struct.FmgrInfo, %struct.FmgrInfo, %struct.FmgrInfo, ptr, i64, ptr, i32, i32, %struct.FmgrInfo, %struct.FmgrInfo, %struct.FmgrInfo, ptr, i32, i32, ptr, i32, ptr, ptr }
%struct.MultirangeType = type { i32, i32, i32 }
%struct.RangeBound = type { i64, i8, i8, i8 }

@.str.2 = private unnamed_addr constant [18 x i8] c"multirangetypes.c\00", align 1
@.str.9 = private unnamed_addr constant [33 x i8] c"type %u is not a multirange type\00", align 1
@__func__.multirange_get_typcache = private unnamed_addr constant [24 x i8] c"multirange_get_typcache\00", align 1
@.str.22 = private unnamed_addr constant [47 x i8] c"could not identify a hash function for type %s\00", align 1
@__func__.hash_multirange = private unnamed_addr constant [16 x i8] c"hash_multirange\00", align 1

; Function Attrs: inlinehint nounwind uwtable
define internal i64 @UInt32GetDatum(i32 noundef %0) #2 {
  %2 = alloca i32, align 4
  store i32 %0, ptr %2, align 4
  %3 = load i32, ptr %2, align 4
  %4 = zext i32 %3 to i64
  ret i64 %4
}

; Function Attrs: inlinehint nounwind uwtable
define internal ptr @DatumGetPointer(i64 noundef %0) #2 {
  %2 = alloca i64, align 8
  store i64 %0, ptr %2, align 8
  %3 = load i64, ptr %2, align 8
  %4 = inttoptr i64 %3 to ptr
  ret ptr %4
}

; Function Attrs: inlinehint nounwind uwtable
define internal i32 @pg_rotate_left32(i32 noundef %0, i32 noundef %1) #2 {
  %3 = alloca i32, align 4
  %4 = alloca i32, align 4
  store i32 %0, ptr %3, align 4
  store i32 %1, ptr %4, align 4
  %5 = load i32, ptr %3, align 4
  %6 = load i32, ptr %4, align 4
  %7 = shl i32 %5, %6
  %8 = load i32, ptr %3, align 4
  %9 = load i32, ptr %4, align 4
  %10 = sub i32 32, %9
  %11 = lshr i32 %8, %10
  %12 = or i32 %7, %11
  ret i32 %12
}

; Function Attrs: inlinehint nounwind uwtable
define internal i64 @hash_uint32(i32 noundef %0) #2 {
  %2 = alloca i32, align 4
  store i32 %0, ptr %2, align 4
  %3 = load i32, ptr %2, align 4
  %4 = call i32 @hash_bytes_uint32(i32 noundef %3)
  %5 = call i64 @UInt32GetDatum(i32 noundef %4)
  ret i64 %5
}

; Function Attrs: inlinehint nounwind uwtable
define internal i32 @DatumGetUInt32(i64 noundef %0) #2 {
  %2 = alloca i64, align 8
  store i64 %0, ptr %2, align 8
  %3 = load i64, ptr %2, align 8
  %4 = trunc i64 %3 to i32
  ret i32 %4
}

; Function Attrs: nounwind uwtable
define dso_local ptr @multirange_get_typcache(ptr noundef %0, i32 noundef %1) #0 {
  %3 = alloca ptr, align 8
  %4 = alloca i32, align 4
  %5 = alloca ptr, align 8
  store ptr %0, ptr %3, align 8
  store i32 %1, ptr %4, align 4
  call void @llvm.lifetime.start.p0(i64 8, ptr %5) #9
  %6 = load ptr, ptr %3, align 8
  %7 = getelementptr inbounds nuw %struct.FunctionCallInfoBaseData, ptr %6, i32 0, i32 0
  %8 = load ptr, ptr %7, align 8
  %9 = getelementptr inbounds nuw %struct.FmgrInfo, ptr %8, i32 0, i32 6
  %10 = load ptr, ptr %9, align 8
  store ptr %10, ptr %5, align 8
  %11 = load ptr, ptr %5, align 8
  %12 = icmp eq ptr %11, null
  br i1 %12, label %19, label %13

13:                                               ; preds = %2
  %14 = load ptr, ptr %5, align 8
  %15 = getelementptr inbounds nuw %struct.TypeCacheEntry, ptr %14, i32 0, i32 0
  %16 = load i32, ptr %15, align 8
  %17 = load i32, ptr %4, align 4
  %18 = icmp ne i32 %16, %17
  br i1 %18, label %19, label %44

19:                                               ; preds = %13, %2
  %20 = load i32, ptr %4, align 4
  %21 = call ptr @lookup_type_cache(i32 noundef %20, i32 noundef 65536)
  store ptr %21, ptr %5, align 8
  %22 = load ptr, ptr %5, align 8
  %23 = getelementptr inbounds nuw %struct.TypeCacheEntry, ptr %22, i32 0, i32 33
  %24 = load ptr, ptr %23, align 8
  %25 = icmp eq ptr %24, null
  br i1 %25, label %26, label %38

26:                                               ; preds = %19
  br label %27

27:                                               ; preds = %26
  br i1 true, label %28, label %30

28:                                               ; preds = %27
  %29 = call zeroext i1 @errstart_cold(i32 noundef 21, ptr noundef null) #11
  br i1 %29, label %32, label %35

30:                                               ; preds = %27
  %31 = call zeroext i1 @errstart(i32 noundef 21, ptr noundef null)
  br i1 %31, label %32, label %35

32:                                               ; preds = %30, %28
  %33 = load i32, ptr %4, align 4
  %34 = call i32 (ptr, ...) @errmsg_internal(ptr noundef @.str.9, i32 noundef %33)
  call void @errfinish(ptr noundef @.str.2, i32 noundef 557, ptr noundef @__func__.multirange_get_typcache)
  br label %35

35:                                               ; preds = %32, %30, %28
  unreachable

36:                                               ; No predecessors!
  br label %37

37:                                               ; preds = %36
  br label %38

38:                                               ; preds = %37, %19
  %39 = load ptr, ptr %5, align 8
  %40 = load ptr, ptr %3, align 8
  %41 = getelementptr inbounds nuw %struct.FunctionCallInfoBaseData, ptr %40, i32 0, i32 0
  %42 = load ptr, ptr %41, align 8
  %43 = getelementptr inbounds nuw %struct.FmgrInfo, ptr %42, i32 0, i32 6
  store ptr %39, ptr %43, align 8
  br label %44

44:                                               ; preds = %38, %13
  %45 = load ptr, ptr %5, align 8
  call void @llvm.lifetime.end.p0(i64 8, ptr %5) #9
  ret ptr %45
}

; Function Attrs: inlinehint nounwind uwtable
define internal ptr @DatumGetMultirangeTypeP(i64 noundef %0) #2 {
  %2 = alloca i64, align 8
  store i64 %0, ptr %2, align 8
  %3 = load i64, ptr %2, align 8
  %4 = call ptr @DatumGetPointer(i64 noundef %3)
  %5 = call ptr @pg_detoast_datum(ptr noundef %4)
  ret ptr %5
}

; Function Attrs: nounwind uwtable
define dso_local i64 @hash_multirange(ptr noundef %0) #0 {
  %2 = alloca ptr, align 8
  %3 = alloca ptr, align 8
  %4 = alloca i32, align 4
  %5 = alloca ptr, align 8
  %6 = alloca ptr, align 8
  %7 = alloca i32, align 4
  %8 = alloca i32, align 4
  %9 = alloca %struct.RangeBound, align 8
  %10 = alloca %struct.RangeBound, align 8
  %11 = alloca i8, align 1
  %12 = alloca i32, align 4
  %13 = alloca i32, align 4
  %14 = alloca i32, align 4
  store ptr %0, ptr %2, align 8
  call void @llvm.lifetime.start.p0(i64 8, ptr %3) #9
  %15 = load ptr, ptr %2, align 8
  %16 = getelementptr inbounds nuw %struct.FunctionCallInfoBaseData, ptr %15, i32 0, i32 6
  %17 = getelementptr inbounds [0 x %struct.NullableDatum], ptr %16, i64 0, i64 0
  %18 = getelementptr inbounds nuw %struct.NullableDatum, ptr %17, i32 0, i32 0
  %19 = load i64, ptr %18, align 8
  %20 = call ptr @DatumGetMultirangeTypeP(i64 noundef %19)
  store ptr %20, ptr %3, align 8
  call void @llvm.lifetime.start.p0(i64 4, ptr %4) #9
  store i32 1, ptr %4, align 4
  call void @llvm.lifetime.start.p0(i64 8, ptr %5) #9
  call void @llvm.lifetime.start.p0(i64 8, ptr %6) #9
  call void @llvm.lifetime.start.p0(i64 4, ptr %7) #9
  call void @llvm.lifetime.start.p0(i64 4, ptr %8) #9
  %21 = load ptr, ptr %2, align 8
  %22 = load ptr, ptr %3, align 8
  %23 = getelementptr inbounds nuw %struct.MultirangeType, ptr %22, i32 0, i32 1
  %24 = load i32, ptr %23, align 4
  %25 = call ptr @multirange_get_typcache(ptr noundef %21, i32 noundef %24)
  store ptr %25, ptr %5, align 8
  %26 = load ptr, ptr %5, align 8
  %27 = getelementptr inbounds nuw %struct.TypeCacheEntry, ptr %26, i32 0, i32 33
  %28 = load ptr, ptr %27, align 8
  %29 = getelementptr inbounds nuw %struct.TypeCacheEntry, ptr %28, i32 0, i32 27
  %30 = load ptr, ptr %29, align 8
  store ptr %30, ptr %6, align 8
  %31 = load ptr, ptr %6, align 8
  %32 = getelementptr inbounds nuw %struct.TypeCacheEntry, ptr %31, i32 0, i32 23
  %33 = getelementptr inbounds nuw %struct.FmgrInfo, ptr %32, i32 0, i32 1
  %34 = load i32, ptr %33, align 8
  %35 = icmp ne i32 %34, 0
  br i1 %35, label %63, label %36

36:                                               ; preds = %1
  %37 = load ptr, ptr %6, align 8
  %38 = getelementptr inbounds nuw %struct.TypeCacheEntry, ptr %37, i32 0, i32 0
  %39 = load i32, ptr %38, align 8
  %40 = call ptr @lookup_type_cache(i32 noundef %39, i32 noundef 128)
  store ptr %40, ptr %6, align 8
  %41 = load ptr, ptr %6, align 8
  %42 = getelementptr inbounds nuw %struct.TypeCacheEntry, ptr %41, i32 0, i32 23
  %43 = getelementptr inbounds nuw %struct.FmgrInfo, ptr %42, i32 0, i32 1
  %44 = load i32, ptr %43, align 8
  %45 = icmp ne i32 %44, 0
  br i1 %45, label %62, label %46

46:                                               ; preds = %36
  br label %47

47:                                               ; preds = %46
  br i1 true, label %48, label %50

48:                                               ; preds = %47
  %49 = call zeroext i1 @errstart_cold(i32 noundef 21, ptr noundef null) #11
  br i1 %49, label %52, label %59

50:                                               ; preds = %47
  %51 = call zeroext i1 @errstart(i32 noundef 21, ptr noundef null)
  br i1 %51, label %52, label %59

52:                                               ; preds = %50, %48
  %53 = call i32 @errcode(i32 noundef 52461700)
  %54 = load ptr, ptr %6, align 8
  %55 = getelementptr inbounds nuw %struct.TypeCacheEntry, ptr %54, i32 0, i32 0
  %56 = load i32, ptr %55, align 8
  %57 = call ptr @format_type_be(i32 noundef %56)
  %58 = call i32 (ptr, ...) @errmsg(ptr noundef @.str.22, ptr noundef %57)
  call void @errfinish(ptr noundef @.str.2, i32 noundef 2806, ptr noundef @__func__.hash_multirange)
  br label %59

59:                                               ; preds = %52, %50, %48
  unreachable

60:                                               ; No predecessors!
  br label %61

61:                                               ; preds = %60
  br label %62

62:                                               ; preds = %61, %36
  br label %63

63:                                               ; preds = %62, %1
  %64 = load ptr, ptr %3, align 8
  %65 = getelementptr inbounds nuw %struct.MultirangeType, ptr %64, i32 0, i32 2
  %66 = load i32, ptr %65, align 4
  store i32 %66, ptr %7, align 4
  store i32 0, ptr %8, align 4
  br label %67

67:                                               ; preds = %144, %63
  %68 = load i32, ptr %8, align 4
  %69 = load i32, ptr %7, align 4
  %70 = icmp slt i32 %68, %69
  br i1 %70, label %71, label %147

71:                                               ; preds = %67
  call void @llvm.lifetime.start.p0(i64 16, ptr %9) #9
  call void @llvm.lifetime.start.p0(i64 16, ptr %10) #9
  call void @llvm.lifetime.start.p0(i64 1, ptr %11) #9
  %72 = load ptr, ptr %3, align 8
  %73 = getelementptr inbounds nuw i8, ptr %72, i64 12
  %74 = load ptr, ptr %3, align 8
  %75 = getelementptr inbounds nuw %struct.MultirangeType, ptr %74, i32 0, i32 2
  %76 = load i32, ptr %75, align 4
  %77 = sub i32 %76, 1
  %78 = zext i32 %77 to i64
  %79 = mul i64 %78, 4
  %80 = getelementptr inbounds nuw i8, ptr %73, i64 %79
  %81 = load i32, ptr %8, align 4
  %82 = sext i32 %81 to i64
  %83 = getelementptr inbounds i8, ptr %80, i64 %82
  %84 = load i8, ptr %83, align 1
  store i8 %84, ptr %11, align 1
  call void @llvm.lifetime.start.p0(i64 4, ptr %12) #9
  call void @llvm.lifetime.start.p0(i64 4, ptr %13) #9
  call void @llvm.lifetime.start.p0(i64 4, ptr %14) #9
  %85 = load ptr, ptr %5, align 8
  %86 = getelementptr inbounds nuw %struct.TypeCacheEntry, ptr %85, i32 0, i32 33
  %87 = load ptr, ptr %86, align 8
  %88 = load ptr, ptr %3, align 8
  %89 = load i32, ptr %8, align 4
  call void @multirange_get_bounds(ptr noundef %87, ptr noundef %88, i32 noundef %89, ptr noundef %9, ptr noundef %10)
  %90 = load i8, ptr %11, align 1
  %91 = zext i8 %90 to i32
  %92 = and i32 %91, 41
  %93 = icmp ne i32 %92, 0
  br i1 %93, label %106, label %94

94:                                               ; preds = %71
  %95 = load ptr, ptr %6, align 8
  %96 = getelementptr inbounds nuw %struct.TypeCacheEntry, ptr %95, i32 0, i32 23
  %97 = load ptr, ptr %5, align 8
  %98 = getelementptr inbounds nuw %struct.TypeCacheEntry, ptr %97, i32 0, i32 33
  %99 = load ptr, ptr %98, align 8
  %100 = getelementptr inbounds nuw %struct.TypeCacheEntry, ptr %99, i32 0, i32 29
  %101 = load i32, ptr %100, align 4
  %102 = getelementptr inbounds nuw %struct.RangeBound, ptr %9, i32 0, i32 0
  %103 = load i64, ptr %102, align 8
  %104 = call i64 @FunctionCall1Coll(ptr noundef %96, i32 noundef %101, i64 noundef %103)
  %105 = call i32 @DatumGetUInt32(i64 noundef %104)
  store i32 %105, ptr %12, align 4
  br label %107

106:                                              ; preds = %71
  store i32 0, ptr %12, align 4
  br label %107

107:                                              ; preds = %106, %94
  %108 = load i8, ptr %11, align 1
  %109 = zext i8 %108 to i32
  %110 = and i32 %109, 81
  %111 = icmp ne i32 %110, 0
  br i1 %111, label %124, label %112

112:                                              ; preds = %107
  %113 = load ptr, ptr %6, align 8
  %114 = getelementptr inbounds nuw %struct.TypeCacheEntry, ptr %113, i32 0, i32 23
  %115 = load ptr, ptr %5, align 8
  %116 = getelementptr inbounds nuw %struct.TypeCacheEntry, ptr %115, i32 0, i32 33
  %117 = load ptr, ptr %116, align 8
  %118 = getelementptr inbounds nuw %struct.TypeCacheEntry, ptr %117, i32 0, i32 29
  %119 = load i32, ptr %118, align 4
  %120 = getelementptr inbounds nuw %struct.RangeBound, ptr %10, i32 0, i32 0
  %121 = load i64, ptr %120, align 8
  %122 = call i64 @FunctionCall1Coll(ptr noundef %114, i32 noundef %119, i64 noundef %121)
  %123 = call i32 @DatumGetUInt32(i64 noundef %122)
  store i32 %123, ptr %13, align 4
  br label %125

124:                                              ; preds = %107
  store i32 0, ptr %13, align 4
  br label %125

125:                                              ; preds = %124, %112
  %126 = load i8, ptr %11, align 1
  %127 = zext i8 %126 to i32
  %128 = call i64 @hash_uint32(i32 noundef %127)
  %129 = trunc i64 %128 to i32
  store i32 %129, ptr %14, align 4
  %130 = load i32, ptr %12, align 4
  %131 = load i32, ptr %14, align 4
  %132 = xor i32 %131, %130
  store i32 %132, ptr %14, align 4
  %133 = load i32, ptr %14, align 4
  %134 = call i32 @pg_rotate_left32(i32 noundef %133, i32 noundef 1)
  store i32 %134, ptr %14, align 4
  %135 = load i32, ptr %13, align 4
  %136 = load i32, ptr %14, align 4
  %137 = xor i32 %136, %135
  store i32 %137, ptr %14, align 4
  %138 = load i32, ptr %4, align 4
  %139 = shl i32 %138, 5
  %140 = load i32, ptr %4, align 4
  %141 = sub i32 %139, %140
  %142 = load i32, ptr %14, align 4
  %143 = add i32 %141, %142
  store i32 %143, ptr %4, align 4
  call void @llvm.lifetime.end.p0(i64 4, ptr %14) #9
  call void @llvm.lifetime.end.p0(i64 4, ptr %13) #9
  call void @llvm.lifetime.end.p0(i64 4, ptr %12) #9
  call void @llvm.lifetime.end.p0(i64 1, ptr %11) #9
  call void @llvm.lifetime.end.p0(i64 16, ptr %10) #9
  call void @llvm.lifetime.end.p0(i64 16, ptr %9) #9
  br label %144

144:                                              ; preds = %125
  %145 = load i32, ptr %8, align 4
  %146 = add i32 %145, 1
  store i32 %146, ptr %8, align 4
  br label %67, !llvm.loop !34

147:                                              ; preds = %67
  br label %148

148:                                              ; preds = %147
  %149 = load ptr, ptr %3, align 8
  %150 = load ptr, ptr %2, align 8
  %151 = getelementptr inbounds nuw %struct.FunctionCallInfoBaseData, ptr %150, i32 0, i32 6
  %152 = getelementptr inbounds [0 x %struct.NullableDatum], ptr %151, i64 0, i64 0
  %153 = getelementptr inbounds nuw %struct.NullableDatum, ptr %152, i32 0, i32 0
  %154 = load i64, ptr %153, align 8
  %155 = call ptr @DatumGetPointer(i64 noundef %154)
  %156 = icmp ne ptr %149, %155
  br i1 %156, label %157, label %159

157:                                              ; preds = %148
  %158 = load ptr, ptr %3, align 8
  call void @pfree(ptr noundef %158)
  br label %159

159:                                              ; preds = %157, %148
  br label %160

160:                                              ; preds = %159
  br label %161

161:                                              ; preds = %160
  %162 = load i32, ptr %4, align 4
  %163 = call i64 @UInt32GetDatum(i32 noundef %162)
  call void @llvm.lifetime.end.p0(i64 4, ptr %8) #9
  call void @llvm.lifetime.end.p0(i64 4, ptr %7) #9
  call void @llvm.lifetime.end.p0(i64 8, ptr %6) #9
  call void @llvm.lifetime.end.p0(i64 8, ptr %5) #9
  call void @llvm.lifetime.end.p0(i64 4, ptr %4) #9
  call void @llvm.lifetime.end.p0(i64 8, ptr %3) #9
  ret i64 %163
}