; Function Attrs: nounwind uwtable
define dso_local range(i64 0, 4294967296) i64 @hash_multirange(ptr noundef readonly captures(none) %0) local_unnamed_addr #0 {
  %2 = alloca %struct.RangeBound, align 8
  %3 = alloca %struct.RangeBound, align 8
  %4 = getelementptr inbounds nuw i8, ptr %0, i64 32
  %5 = load i64, ptr %4, align 8
  %6 = inttoptr i64 %5 to ptr
  %7 = tail call ptr @pg_detoast_datum(ptr noundef %6) #11
  %8 = getelementptr inbounds nuw i8, ptr %7, i64 4
  %9 = load i32, ptr %8, align 4
  %10 = load ptr, ptr %0, align 8
  %11 = getelementptr inbounds nuw i8, ptr %10, i64 24
  %12 = load ptr, ptr %11, align 8
  %13 = icmp eq ptr %12, null
  br i1 %13, label %16, label %14

14:                                               ; preds = %1
  %15 = load i32, ptr %12, align 8
  %.not.i = icmp eq i32 %15, %9
  br i1 %.not.i, label %multirange_get_typcache.exit, label %16

16:                                               ; preds = %14, %1
  %17 = tail call ptr @lookup_type_cache(i32 noundef %9, i32 noundef 65536) #11
  %18 = getelementptr inbounds nuw i8, ptr %17, i64 440
  %19 = load ptr, ptr %18, align 8
  %20 = icmp eq ptr %19, null
  br i1 %20, label %21, label %24

21:                                               ; preds = %16
  %22 = tail call zeroext i1 @errstart_cold(i32 noundef 21, ptr noundef null) #13
  tail call void @llvm.assume(i1 %22)
  %23 = tail call i32 (ptr, ...) @errmsg_internal(ptr noundef nonnull @.str.9, i32 noundef %9) #11
  tail call void @errfinish(ptr noundef nonnull @.str.2, i32 noundef 557, ptr noundef nonnull @__func__.multirange_get_typcache) #11
  unreachable

24:                                               ; preds = %16
  %25 = load ptr, ptr %0, align 8
  %26 = getelementptr inbounds nuw i8, ptr %25, i64 24
  store ptr %17, ptr %26, align 8
  br label %multirange_get_typcache.exit

multirange_get_typcache.exit:                     ; preds = %14, %24
  %.0.i = phi ptr [ %17, %24 ], [ %12, %14 ]
  %27 = getelementptr inbounds nuw i8, ptr %.0.i, i64 440
  %28 = load ptr, ptr %27, align 8
  %29 = getelementptr inbounds nuw i8, ptr %28, i64 280
  %30 = load ptr, ptr %29, align 8
  %31 = getelementptr inbounds nuw i8, ptr %30, i64 176
  %32 = load i32, ptr %31, align 8
  %.not = icmp eq i32 %32, 0
  br i1 %.not, label %33, label %44

33:                                               ; preds = %multirange_get_typcache.exit
  %34 = load i32, ptr %30, align 8
  %35 = tail call ptr @lookup_type_cache(i32 noundef %34, i32 noundef 128) #11
  %36 = getelementptr inbounds nuw i8, ptr %35, i64 176
  %37 = load i32, ptr %36, align 8
  %.not41 = icmp eq i32 %37, 0
  br i1 %.not41, label %38, label %44

38:                                               ; preds = %33
  %39 = tail call zeroext i1 @errstart_cold(i32 noundef 21, ptr noundef null) #13
  tail call void @llvm.assume(i1 %39)
  %40 = tail call i32 @errcode(i32 noundef 52461700) #11
  %41 = load i32, ptr %35, align 8
  %42 = tail call ptr @format_type_be(i32 noundef %41) #11
  %43 = tail call i32 (ptr, ...) @errmsg(ptr noundef nonnull @.str.22, ptr noundef %42) #11
  tail call void @errfinish(ptr noundef nonnull @.str.2, i32 noundef 2806, ptr noundef nonnull @__func__.hash_multirange) #11
  unreachable

44:                                               ; preds = %33, %multirange_get_typcache.exit
  %.038 = phi ptr [ %30, %multirange_get_typcache.exit ], [ %35, %33 ]
  %45 = getelementptr inbounds nuw i8, ptr %7, i64 8
  %46 = load i32, ptr %45, align 4
  %47 = icmp sgt i32 %46, 0
  br i1 %47, label %.lr.ph, label %._crit_edge

.lr.ph:                                           ; preds = %44
  %48 = getelementptr inbounds nuw i8, ptr %7, i64 12
  %49 = getelementptr inbounds nuw i8, ptr %.038, i64 168
  %wide.trip.count = zext nneg i32 %46 to i64
  br label %50

50:                                               ; preds = %.lr.ph, %78
  %indvars.iv = phi i64 [ 0, %.lr.ph ], [ %indvars.iv.next, %78 ]
  %.046 = phi i32 [ 1, %.lr.ph ], [ %84, %78 ]
  call void @llvm.lifetime.start.p0(i64 16, ptr nonnull %2) #11
  call void @llvm.lifetime.start.p0(i64 16, ptr nonnull %3) #11
  %51 = load i32, ptr %45, align 4
  %52 = add i32 %51, -1
  %53 = zext i32 %52 to i64
  %54 = shl nuw nsw i64 %53, 2
  %55 = getelementptr inbounds nuw i8, ptr %48, i64 %54
  %56 = getelementptr inbounds nuw i8, ptr %55, i64 %indvars.iv
  %57 = load i8, ptr %56, align 1
  %58 = load ptr, ptr %27, align 8
  %59 = trunc nuw nsw i64 %indvars.iv to i32
  call void @multirange_get_bounds(ptr noundef %58, ptr noundef nonnull %7, i32 noundef %59, ptr noundef nonnull %2, ptr noundef nonnull %3)
  %60 = zext i8 %57 to i32
  %61 = and i32 %60, 41
  %.not43 = icmp eq i32 %61, 0
  br i1 %.not43, label %62, label %69

62:                                               ; preds = %50
  %63 = load ptr, ptr %27, align 8
  %64 = getelementptr inbounds nuw i8, ptr %63, i64 292
  %65 = load i32, ptr %64, align 4
  %66 = load i64, ptr %2, align 8
  %67 = tail call i64 @FunctionCall1Coll(ptr noundef nonnull %49, i32 noundef %65, i64 noundef %66) #11
  %68 = trunc i64 %67 to i32
  br label %69

69:                                               ; preds = %50, %62
  %.037 = phi i32 [ %68, %62 ], [ 0, %50 ]
  %70 = and i32 %60, 81
  %.not44 = icmp eq i32 %70, 0
  br i1 %.not44, label %71, label %78

71:                                               ; preds = %69
  %72 = load ptr, ptr %27, align 8
  %73 = getelementptr inbounds nuw i8, ptr %72, i64 292
  %74 = load i32, ptr %73, align 4
  %75 = load i64, ptr %3, align 8
  %76 = tail call i64 @FunctionCall1Coll(ptr noundef nonnull %49, i32 noundef %74, i64 noundef %75) #11
  %77 = trunc i64 %76 to i32
  br label %78

78:                                               ; preds = %69, %71
  %.036 = phi i32 [ %77, %71 ], [ 0, %69 ]
  %79 = tail call i32 @hash_bytes_uint32(i32 noundef range(i32 0, 256) %60) #11
  %80 = xor i32 %79, %.037
  %81 = tail call noundef i32 @llvm.fshl.i32(i32 %80, i32 %80, i32 1)
  %82 = xor i32 %81, %.036
  %83 = mul i32 %.046, 31
  %84 = add i32 %82, %83
  call void @llvm.lifetime.end.p0(i64 16, ptr nonnull %3) #11
  call void @llvm.lifetime.end.p0(i64 16, ptr nonnull %2) #11
  %indvars.iv.next = add nuw nsw i64 %indvars.iv, 1
  %exitcond.not = icmp eq i64 %indvars.iv.next, %wide.trip.count
  br i1 %exitcond.not, label %._crit_edge.loopexit, label %50, !llvm.loop !40

._crit_edge.loopexit:                             ; preds = %78
  %85 = zext i32 %84 to i64
  br label %._crit_edge

._crit_edge:                                      ; preds = %._crit_edge.loopexit, %44
  %.0.lcssa = phi i64 [ 1, %44 ], [ %85, %._crit_edge.loopexit ]
  %86 = load i64, ptr %4, align 8
  %87 = inttoptr i64 %86 to ptr
  %.not42 = icmp eq ptr %7, %87
  br i1 %.not42, label %89, label %88

88:                                               ; preds = %._crit_edge
  tail call void @pfree(ptr noundef nonnull %7) #11
  br label %89

89:                                               ; preds = %88, %._crit_edge
  ret i64 %.0.lcssa
}